target datalayout = "e-m:e-p270:32:32-p271:32:32-p272:64:64-i64:64-i128:128-f80:128-n8:16:32:64-S128"
target triple = "x86_64-pc-linux-gnu"

; Function Attrs: nounwind uwtable
define internal void @deflate16(ptr noundef %0, ptr noundef %1, i32 noundef %2, i32 noundef %3, ptr noundef %4, i32 noundef %5, i32 noundef %6) #1 {
  %8 = alloca ptr, align 8
  %9 = alloca ptr, align 8
  %10 = alloca i32, align 4
  %11 = alloca i32, align 4
  %12 = alloca ptr, align 8
  %13 = alloca i32, align 4
  %14 = alloca i32, align 4
  %15 = alloca ptr, align 8
  %16 = alloca i32, align 4
  %17 = alloca i32, align 4
  %18 = alloca i32, align 4
  %19 = alloca i32, align 4
  store ptr %0, ptr %8, align 8, !tbaa !64
  store ptr %1, ptr %9, align 8, !tbaa !64
  store i32 %2, ptr %10, align 4, !tbaa !42
  store i32 %3, ptr %11, align 4, !tbaa !42
  store ptr %4, ptr %12, align 8, !tbaa !69
  store i32 %5, ptr %13, align 4, !tbaa !42
  store i32 %6, ptr %14, align 4, !tbaa !42
  call void @llvm.lifetime.start.p0(i64 8, ptr %15) #5
  %20 = load ptr, ptr %8, align 8, !tbaa !64
  store ptr %20, ptr %15, align 8, !tbaa !71
  call void @llvm.lifetime.start.p0(i64 4, ptr %16) #5
  call void @llvm.lifetime.start.p0(i64 4, ptr %17) #5
  store i32 0, ptr %16, align 4, !tbaa !42
  br label %21

21:                                               ; preds = %127, %7
  %22 = load i32, ptr %16, align 4, !tbaa !42
  %23 = load i32, ptr %10, align 4, !tbaa !42
  %24 = icmp slt i32 %22, %23
  br i1 %24, label %25, label %130

25:                                               ; preds = %21
  call void @llvm.lifetime.start.p0(i64 4, ptr %18) #5
  store i32 0, ptr %18, align 4, !tbaa !42
  call void @llvm.lifetime.start.p0(i64 4, ptr %19) #5
  %26 = load ptr, ptr %9, align 8, !tbaa !64
  %27 = load i32, ptr %16, align 4, !tbaa !42
  %28 = mul nsw i32 2, %27
  %29 = sext i32 %28 to i64
  %30 = getelementptr inbounds i8, ptr %26, i64 %29
  %31 = load i16, ptr %30, align 2, !tbaa !73
  %32 = zext i16 %31 to i32
  %33 = load i32, ptr %11, align 4, !tbaa !42
  %34 = sub nsw i32 %32, %33
  %35 = icmp sgt i32 %34, 0
  br i1 %35, label %36, label %46

36:                                               ; preds = %25
  %37 = load ptr, ptr %9, align 8, !tbaa !64
  %38 = load i32, ptr %16, align 4, !tbaa !42
  %39 = mul nsw i32 2, %38
  %40 = sext i32 %39 to i64
  %41 = getelementptr inbounds i8, ptr %37, i64 %40
  %42 = load i16, ptr %41, align 2, !tbaa !73
  %43 = zext i16 %42 to i32
  %44 = load i32, ptr %11, align 4, !tbaa !42
  %45 = sub nsw i32 %43, %44
  br label %47

46:                                               ; preds = %25
  br label %47

47:                                               ; preds = %46, %36
  %48 = phi i32 [ %45, %36 ], [ 0, %46 ]
  store i32 %48, ptr %19, align 4, !tbaa !42
  store i32 0, ptr %17, align 4, !tbaa !42
  br label %49

49:                                               ; preds = %53, %47
  %50 = load i32, ptr %17, align 4, !tbaa !42
  %51 = icmp slt i32 %50, 8
  br i1 %51, label %52, label %68

52:                                               ; preds = %49
  br label %53

53:                                               ; preds = %52
  %54 = load ptr, ptr %12, align 8, !tbaa !69
  %55 = load i32, ptr %17, align 4, !tbaa !42
  %56 = add nsw i32 %55, 1
  store i32 %56, ptr %17, align 4, !tbaa !42
  %57 = sext i32 %55 to i64
  %58 = getelementptr inbounds ptr, ptr %54, i64 %57
  %59 = load ptr, ptr %58, align 8, !tbaa !64
  %60 = load i32, ptr %16, align 4, !tbaa !42
  %61 = mul nsw i32 %60, 2
  %62 = sext i32 %61 to i64
  %63 = getelementptr inbounds i8, ptr %59, i64 %62
  %64 = load i16, ptr %63, align 2, !tbaa !73
  %65 = zext i16 %64 to i32
  %66 = load i32, ptr %18, align 4, !tbaa !42
  %67 = add nsw i32 %66, %65
  store i32 %67, ptr %18, align 4, !tbaa !42
  br label %49, !llvm.loop !84

68:                                               ; preds = %49
  %69 = load i32, ptr %18, align 4, !tbaa !42
  %70 = sdiv i32 %69, 8
  %71 = load ptr, ptr %9, align 8, !tbaa !64
  %72 = load i32, ptr %16, align 4, !tbaa !42
  %73 = mul nsw i32 2, %72
  %74 = sext i32 %73 to i64
  %75 = getelementptr inbounds i8, ptr %71, i64 %74
  %76 = load i16, ptr %75, align 2, !tbaa !73
  %77 = zext i16 %76 to i32
  %78 = icmp sgt i32 %70, %77
  br i1 %78, label %79, label %87

79:                                               ; preds = %68
  %80 = load ptr, ptr %9, align 8, !tbaa !64
  %81 = load i32, ptr %16, align 4, !tbaa !42
  %82 = mul nsw i32 2, %81
  %83 = sext i32 %82 to i64
  %84 = getelementptr inbounds i8, ptr %80, i64 %83
  %85 = load i16, ptr %84, align 2, !tbaa !73
  %86 = zext i16 %85 to i32
  br label %90

87:                                               ; preds = %68
  %88 = load i32, ptr %18, align 4, !tbaa !42
  %89 = sdiv i32 %88, 8
  br label %90

90:                                               ; preds = %87, %79
  %91 = phi i32 [ %86, %79 ], [ %89, %87 ]
  %92 = load i32, ptr %19, align 4, !tbaa !42
  %93 = icmp sgt i32 %91, %92
  br i1 %93, label %94, label %118

94:                                               ; preds = %90
  %95 = load i32, ptr %18, align 4, !tbaa !42
  %96 = sdiv i32 %95, 8
  %97 = load ptr, ptr %9, align 8, !tbaa !64
  %98 = load i32, ptr %16, align 4, !tbaa !42
  %99 = mul nsw i32 2, %98
  %100 = sext i32 %99 to i64
  %101 = getelementptr inbounds i8, ptr %97, i64 %100
  %102 = load i16, ptr %101, align 2, !tbaa !73
  %103 = zext i16 %102 to i32
  %104 = icmp sgt i32 %96, %103
  br i1 %104, label %105, label %113

105:                                              ; preds = %94
  %106 = load ptr, ptr %9, align 8, !tbaa !64
  %107 = load i32, ptr %16, align 4, !tbaa !42
  %108 = mul nsw i32 2, %107
  %109 = sext i32 %108 to i64
  %110 = getelementptr inbounds i8, ptr %106, i64 %109
  %111 = load i16, ptr %110, align 2, !tbaa !73
  %112 = zext i16 %111 to i32
  br label %116

113:                                              ; preds = %94
  %114 = load i32, ptr %18, align 4, !tbaa !42
  %115 = sdiv i32 %114, 8
  br label %116

116:                                              ; preds = %113, %105
  %117 = phi i32 [ %112, %105 ], [ %115, %113 ]
  br label %120

118:                                              ; preds = %90
  %119 = load i32, ptr %19, align 4, !tbaa !42
  br label %120

120:                                              ; preds = %118, %116
  %121 = phi i32 [ %117, %116 ], [ %119, %118 ]
  %122 = trunc i32 %121 to i16
  %123 = load ptr, ptr %15, align 8, !tbaa !71
  %124 = load i32, ptr %16, align 4, !tbaa !42
  %125 = sext i32 %124 to i64
  %126 = getelementptr inbounds i16, ptr %123, i64 %125
  store i16 %122, ptr %126, align 2, !tbaa !75
  call void @llvm.lifetime.end.p0(i64 4, ptr %19) #5
  call void @llvm.lifetime.end.p0(i64 4, ptr %18) #5
  br label %127

127:                                              ; preds = %120
  %128 = load i32, ptr %16, align 4, !tbaa !42
  %129 = add nsw i32 %128, 1
  store i32 %129, ptr %16, align 4, !tbaa !42
  br label %21, !llvm.loop !85

130:                                              ; preds = %21
  call void @llvm.lifetime.end.p0(i64 4, ptr %17) #5
  call void @llvm.lifetime.end.p0(i64 4, ptr %16) #5
  call void @llvm.lifetime.end.p0(i64 8, ptr %15) #5
  ret void
}