; Function Attrs: nofree norecurse nosync nounwind memory(read, argmem: readwrite, inaccessiblemem: none) uwtable
define internal void @deflate16(ptr noundef writeonly captures(none) %0, ptr noundef readonly captures(none) %1, i32 noundef %2, i32 noundef %3, ptr noundef readonly captures(none) %4, i32 %5, i32 %6) #5 {
  %8 = icmp sgt i32 %2, 0
  br i1 %8, label %.lr.ph.preheader, label %._crit_edge

.lr.ph.preheader:                                 ; preds = %7
  %wide.trip.count = zext nneg i32 %2 to i64
  br label %.lr.ph

.lr.ph:                                           ; preds = %.lr.ph.preheader, %19
  %indvars.iv43 = phi i64 [ 0, %.lr.ph.preheader ], [ %indvars.iv.next44, %19 ]
  %9 = shl nuw nsw i64 %indvars.iv43, 1
  %10 = getelementptr inbounds nuw i8, ptr %1, i64 %9
  %11 = load i16, ptr %10, align 2, !tbaa !61
  br label %12

12:                                               ; preds = %.lr.ph, %12
  %indvars.iv = phi i64 [ 0, %.lr.ph ], [ %indvars.iv.next, %12 ]
  %.03040 = phi i32 [ 0, %.lr.ph ], [ %18, %12 ]
  %indvars.iv.next = add nuw nsw i64 %indvars.iv, 1
  %13 = getelementptr inbounds nuw ptr, ptr %4, i64 %indvars.iv
  %14 = load ptr, ptr %13, align 8, !tbaa !56
  %15 = getelementptr inbounds nuw i8, ptr %14, i64 %9
  %16 = load i16, ptr %15, align 2, !tbaa !61
  %17 = zext i16 %16 to i32
  %18 = add nuw nsw i32 %.03040, %17
  %exitcond.not = icmp eq i64 %indvars.iv.next, 8
  br i1 %exitcond.not, label %19, label %12, !llvm.loop !72

19:                                               ; preds = %12
  %20 = zext i16 %11 to i32
  %21 = sub nsw i32 %20, %3
  %spec.select = tail call i32 @llvm.smax.i32(i32 %21, i32 0)
  %22 = lshr i32 %18, 3
  %. = tail call i32 @llvm.umin.i32(i32 %22, i32 %20)
  %spec.select38 = tail call i32 @llvm.umax.i32(i32 %., i32 %spec.select)
  %23 = trunc i32 %spec.select38 to i16
  %24 = getelementptr inbounds nuw i16, ptr %0, i64 %indvars.iv43
  store i16 %23, ptr %24, align 2, !tbaa !63
  %indvars.iv.next44 = add nuw nsw i64 %indvars.iv43, 1
  %exitcond46.not = icmp eq i64 %indvars.iv.next44, %wide.trip.count
  br i1 %exitcond46.not, label %._crit_edge, label %.lr.ph, !llvm.loop !73

._crit_edge:                                      ; preds = %19, %7
  ret void
}